 0x000000000000000e (SONAME)             Library soname: [libcpputest.so]
CHECK_C_LOCATION T
CHECK_EQUAL_C_BITS_LOCATION T
CHECK_EQUAL_C_BOOL_LOCATION T
CHECK_EQUAL_C_CHAR_LOCATION T
CHECK_EQUAL_C_INT_LOCATION T
CHECK_EQUAL_C_LONG_LOCATION T
CHECK_EQUAL_C_LONGLONG_LOCATION T
CHECK_EQUAL_C_POINTER_LOCATION T
CHECK_EQUAL_C_REAL_LOCATION T
CHECK_EQUAL_C_SBYTE_LOCATION T
CHECK_EQUAL_C_STRING_LOCATION T
CHECK_EQUAL_C_UBYTE_LOCATION T
CHECK_EQUAL_C_UINT_LOCATION T
CHECK_EQUAL_C_ULONG_LOCATION T
CHECK_EQUAL_C_ULONGLONG_LOCATION T
cpputest_calloc T
cpputest_calloc_location T
cpputest_free T
cpputest_free_location T
cpputest_malloc T
cpputest_malloc_count_reset T
cpputest_malloc_get_count T
cpputest_malloc_location T
cpputest_malloc_set_not_out_of_memory T
cpputest_malloc_set_out_of_memory T
cpputest_malloc_set_out_of_memory_countdown T
cpputest_realloc T
cpputest_realloc_location T
cpputest_strdup T
cpputest_strdup_location T
cpputest_strndup T
cpputest_strndup_location T
FAIL_C_LOCATION T
FAIL_TEXT_C_LOCATION T
GetPlatformSpecificTimeInMillis D 8
GetPlatformSpecificTimeString D 8
PlatformSpecificAtExit D 8
PlatformSpecificFabs D 8
PlatformSpecificFClose D 8
PlatformSpecificFlush D 8
PlatformSpecificFOpen D 8
PlatformSpecificFork D 8
PlatformSpecificFPuts D 8
PlatformSpecificFree D 8
PlatformSpecificIsInf D 8
PlatformSpecificIsNan D 8
PlatformSpecificLongJmp D 8
PlatformSpecificMalloc D 8
PlatformSpecificMemCpy D 8
PlatformSpecificMemset D 8
PlatformSpecificMutexCreate D 8
PlatformSpecificMutexDestroy D 8
PlatformSpecificMutexLock D 8
PlatformSpecificMutexUnlock D 8
PlatformSpecificPutchar D 8
PlatformSpecificRand D 8
PlatformSpecificRealloc D 8
PlatformSpecificRestoreJumpBuffer D 8
PlatformSpecificRunTestInASeperateProcess D 8
PlatformSpecificSetJmp D 8
PlatformSpecificSrand D 8
PlatformSpecificVSNprintf D 8
PlatformSpecificWaitPid D 8
_Z10StringFromb T
_Z10StringFromc T
_Z10StringFromdi T
_Z10StringFromDn T
_Z10StringFromi T
_Z10StringFromj T
_Z10StringFroml T
_Z10StringFromm T
_Z10StringFromPFvvE T
_Z10StringFromPKc T
_Z10StringFromPKv T
_Z10StringFromRK10TestFilter T
_Z10StringFromRK12SimpleString T
_Z10StringFromRKNSt7__cxx1112basic_stringIcSt11char_traitsIcESaIcEEE T
_Z10StringFromx T
_Z10StringFromy T
_Z13CppUTestStorePPv T
_Z13doubles_equalddd T
_Z13HexStringFroma T
_Z13HexStringFromi T
_Z13HexStringFromj T
_Z13HexStringFroml T
_Z13HexStringFromm T
_Z13HexStringFromPFvvE T
_Z13HexStringFromPKv T
_Z13HexStringFromx T
_Z13HexStringFromy T
_Z16StringFromBinaryPKhm T
_Z16StringFromFormatPKcz T
_Z16StringFromOrNullPKc T
_Z17VStringFromFormatPKcP13__va_list_tag T
_Z19defaultNewAllocatorv T
_Z20StringFromMaskedBitsmmm T
_Z22defaultMallocAllocatorv T
_Z22getCurrentNewAllocatorv T
_Z22setCurrentNewAllocatorP19TestMemoryAllocator T
_Z22StringFromBinaryOrNullPKhm T
_Z23StringFromOrdinalNumberj T
_Z24defaultNewArrayAllocatorv T
_Z24StringFromBinaryWithSizePKhm T
_Z25getCurrentMallocAllocatorv T
_Z25setCurrentMallocAllocatorP19TestMemoryAllocator T
_Z26BracketsFormattedHexString12SimpleString T
_Z26crash_on_allocation_numberj T
_Z27getCurrentNewArrayAllocatorv T
_Z27setCurrentNewArrayAllocatorP19TestMemoryAllocator T
_Z30BracketsFormattedHexStringFroma T
_Z30BracketsFormattedHexStringFromi T
_Z30BracketsFormattedHexStringFromj T
_Z30BracketsFormattedHexStringFroml T
_Z30BracketsFormattedHexStringFromm T
_Z30BracketsFormattedHexStringFromx T
_Z30BracketsFormattedHexStringFromy T
_Z30StringFromBinaryWithSizeOrNullPKhm T
_Z31setCurrentNewAllocatorToDefaultv T
_Z34setCurrentMallocAllocatorToDefaultv T
_Z36setCurrentNewArrayAllocatorToDefaultv T
_Z37PlatformSpecificGetWorkingEnvironmentv T
_Z42cpputest_free_location_with_leak_detectionPvPKcm T
_Z44cpputest_malloc_location_with_leak_detectionmPKcm T
_Z45cpputest_realloc_location_with_leak_detectionPvmPKcm T
_ZdaPv T
_ZdaPvm T
_ZdaPvPKci T
_ZdaPvPKcm T
_ZdaPvRKSt9nothrow_t T
_ZdlPv T
_ZdlPvm T
_ZdlPvPKci T
_ZdlPvPKcm T
_ZdlPvRKSt9nothrow_t T
_ZeqRK12SimpleStringS1_ T
_ZlsR10TestOutputl T
_ZlsR10TestOutputPKc T
_ZN10TestFilter14invertMatchingEv T
_ZN10TestFilter14strictMatchingEv T
_ZN10TestFilter3addEPS_ T
_ZN10TestFilterC1EPKc T
_ZN10TestFilterC1ERK12SimpleString T
_ZN10TestFilterC1Ev T
_ZN10TestFilterC2EPKc T
_ZN10TestFilterC2ERK12SimpleString T
_ZN10TestFilterC2Ev T
_ZN10TestFilterD1Ev W
_ZN10TestFilterD2Ev W
_ZN10TestOutput11printDoubleEd T
_ZN10TestOutput12printFailureERK11TestFailure T
_ZN10TestOutput12printTestRunEmm T
_ZN10TestOutput15printTestsEndedERK10TestResult T
_ZN10TestOutput16printVeryVerboseEPKc T
_ZN10TestOutput17printTestsStartedEv T
_ZN10TestOutput18printFailureInTestE12SimpleString T
_ZN10TestOutput19printFailureMessageE12SimpleString T
_ZN10TestOutput19workingEnvironment_E D 4
_ZN10TestOutput20setProgressIndicatorEPKc T
_ZN10TestOutput21getWorkingEnvironmentEv T
_ZN10TestOutput21printCurrentTestEndedERK10TestResult T
_ZN10TestOutput21setWorkingEnvironmentENS_18WorkingEnvironmentE T
_ZN10TestOutput22printCurrentGroupEndedERK10TestResult T
_ZN10TestOutput22printProgressIndicatorEv T
_ZN10TestOutput23printCurrentTestStartedERK10UtestShell T
_ZN10TestOutput24printCurrentGroupStartedERK10UtestShell T
_ZN10TestOutput26printFileAndLineForFailureERK11TestFailure T
_ZN10TestOutput29printEclipseErrorInFileOnLineE12SimpleStringm T
_ZN10TestOutput33printFileAndLineForTestAndFailureERK11TestFailure T
_ZN10TestOutput34printVisualStudioErrorInFileOnLineE12SimpleStringm T
_ZN10TestOutput52printErrorInFileOnLineFormattedForWorkingEnvironmentE12SimpleStringm T
_ZN10TestOutput5colorEv T
_ZN10TestOutput5printEl T
_ZN10TestOutput5printEm T
_ZN10TestOutput5printEPKc T
_ZN10TestOutput7verboseENS_14VerbosityLevelE T
_ZN10TestOutputC1Ev T
_ZN10TestOutputC2Ev T
_ZN10TestOutputD0Ev T
_ZN10TestOutputD1Ev T
_ZN10TestOutputD2Ev T
_ZN10TestPlugin13preTestActionER10UtestShellR10TestResult W
_ZN10TestPlugin14parseArgumentsEiPKPKci W
_ZN10TestPlugin14postTestActionER10UtestShellR10TestResult W
_ZN10TestPlugin15getPluginByNameERK12SimpleString T
_ZN10TestPlugin17parseAllArgumentsEiPKPKci T
_ZN10TestPlugin17parseAllArgumentsEiPPci T
_ZN10TestPlugin18removePluginByNameERK12SimpleString T
_ZN10TestPlugin19runAllPreTestActionER10UtestShellR10TestResult T
_ZN10TestPlugin20runAllPostTestActionER10UtestShellR10TestResult T
_ZN10TestPlugin6enableEv T
_ZN10TestPlugin7disableEv T
_ZN10TestPlugin7getNameEv T
_ZN10TestPlugin7getNextEv T
_ZN10TestPlugin9addPluginEPS_ T
_ZN10TestPlugin9isEnabledEv T
_ZN10TestPluginC1EPS_ T
_ZN10TestPluginC1ERK12SimpleString T
_ZN10TestPluginC2EPS_ T
_ZN10TestPluginC2ERK12SimpleString T
_ZN10TestPluginD0Ev T
_ZN10TestPluginD1Ev T
_ZN10TestPluginD2Ev T
_ZN10TestResult10addFailureERK11TestFailure T
_ZN10TestResult10countCheckEv T
_ZN10TestResult10testsEndedEv T
_ZN10TestResult12countIgnoredEv T
_ZN10TestResult12testsStartedEv T
_ZN10TestResult16countFilteredOutEv T
_ZN10TestResult16currentTestEndedEP10UtestShell T
_ZN10TestResult16printVeryVerboseEPKc T
_ZN10TestResult17currentGroupEndedEP10UtestShell T
_ZN10TestResult18currentTestStartedEP10UtestShell T
_ZN10TestResult19currentGroupStartedEP10UtestShell T
_ZN10TestResult21setTotalExecutionTimeEm T
_ZN10TestResult5printEPKc T
_ZN10TestResult8countRunEv T
_ZN10TestResult9countTestEv T
_ZN10TestResultC1ER10TestOutput T
_ZN10TestResultC2ER10TestOutput T
_ZN10TestResultD0Ev T
_ZN10TestResultD1Ev T
_ZN10TestResultD2Ev T
_ZN10UtestShell10assertTrueEbPKcS1_S1_S1_mRK14TestTerminator T
_ZN10UtestShell10countCheckEv T
_ZN10UtestShell10countTestsEv T
_ZN10UtestShell10createTestEv T
_ZN10UtestShell10getCurrentEv T
_ZN10UtestShell10runOneTestEP10TestPluginR10TestResult T
_ZN10UtestShell11destroyTestEP5Utest T
_ZN10UtestShell11setFileNameEPKc T
_ZN10UtestShell11setTestNameEPKc T
_ZN10UtestShell11testResult_E B 8
_ZN10UtestShell12assertEqualsEbPKcS1_S1_S1_mRK14TestTerminator T
_ZN10UtestShell12currentTest_E B 8
_ZN10UtestShell12setGroupNameEPKc T
_ZN10UtestShell13assertCompareEbPKcS1_S1_S1_mRK14TestTerminator T
_ZN10UtestShell13getTestResultEv T
_ZN10UtestShell13setLineNumberEm T
_ZN10UtestShell13setRunIgnoredEv T
_ZN10UtestShell13setTestResultEP10TestResult T
_ZN10UtestShell14setCrashMethodEPFvvE T
_ZN10UtestShell14setCrashOnFailEv T
_ZN10UtestShell14setCurrentTestEPS_ T
_ZN10UtestShell15assertBitsEqualEmmmmPKcS1_mRK14TestTerminator T
_ZN10UtestShell15assertCstrEqualEPKcS1_S1_S1_mRK14TestTerminator T
_ZN10UtestShell16assertCstrNEqualEPKcS1_mS1_S1_mRK14TestTerminator T
_ZN10UtestShell16assertLongsEqualEllPKcS1_mRK14TestTerminator T
_ZN10UtestShell16printVeryVerboseEPKc T
_ZN10UtestShell16resetCrashMethodEv T
_ZN10UtestShell17assertBinaryEqualEPKvS1_mPKcS3_mRK14TestTerminator T
_ZN10UtestShell18assertCstrContainsEPKcS1_S1_S1_m T
_ZN10UtestShell18assertDoublesEqualEdddPKcS1_mRK14TestTerminator T
_ZN10UtestShell19assertPointersEqualEPKvS1_PKcS3_mRK14TestTerminator T
_ZN10UtestShell20assertLongLongsEqualExxPKcS1_mRK14TestTerminator T
_ZN10UtestShell21assertCstrNoCaseEqualEPKcS1_S1_S1_m T
_ZN10UtestShell22assertSignedBytesEqualEaaPKcS1_mRK14TestTerminator T
_ZN10UtestShell22currentTestTerminator_E D 8
_ZN10UtestShell23setRunInSeperateProcessEv T
_ZN10UtestShell24assertCstrNoCaseContainsEPKcS1_S1_S1_m T
_ZN10UtestShell24assertUnsignedLongsEqualEmmPKcS1_mRK14TestTerminator T
_ZN10UtestShell24getCurrentTestTerminatorEv T
_ZN10UtestShell26runOneTestInCurrentProcessEP10TestPluginR10TestResult T
_ZN10UtestShell27assertFunctionPointersEqualEPFvvES1_PKcS3_mRK14TestTerminator T
_ZN10UtestShell28assertUnsignedLongLongsEqualEyyPKcS1_mRK14TestTerminator T
_ZN10UtestShell28restoreDefaultTestTerminatorEv T
_ZN10UtestShell4failEPKcS1_mRK14TestTerminator T
_ZN10UtestShell5crashEv T
_ZN10UtestShell5printEPKcS1_m T
_ZN10UtestShell5printERK12SimpleStringPKcm T
_ZN10UtestShell7addTestEPS_ T
_ZN10UtestShell8exitTestERK14TestTerminator T
_ZN10UtestShell8failWithERK11TestFailure T
_ZN10UtestShell8failWithERK11TestFailureRK14TestTerminator T
_ZN10UtestShellC1EPKcS1_S1_m T
_ZN10UtestShellC1EPKcS1_S1_mPS_ T
_ZN10UtestShellC1Ev T
_ZN10UtestShellC2EPKcS1_S1_m T
_ZN10UtestShellC2EPKcS1_S1_mPS_ T
_ZN10UtestShellC2Ev T
_ZN10UtestShellD0Ev T
_ZN10UtestShellD1Ev T
_ZN10UtestShellD2Ev T
_ZN11FailFailureC1EP10UtestShellPKcmRK12SimpleString T
_ZN11FailFailureC2EP10UtestShellPKcmRK12SimpleString T
_ZN11FailFailureD0Ev W
_ZN11FailFailureD1Ev W
_ZN11FailFailureD2Ev W
_ZN11SimpleMutex4LockEv T
_ZN11SimpleMutex6UnlockEv T
_ZN11SimpleMutexC1Ev T
_ZN11SimpleMutexC2Ev T
_ZN11SimpleMutexD1Ev T
_ZN11SimpleMutexD2Ev T
_ZN11TestFailure14createUserTextERK12SimpleString T
_ZN11TestFailure18createButWasStringERK12SimpleStringS2_ T
_ZN11TestFailure27createDifferenceAtPosStringERK12SimpleStringmNS_16DifferenceFormatE T
_ZN11TestFailureC1EP10UtestShellPKcm T
_ZN11TestFailureC1EP10UtestShellPKcmRK12SimpleString T
_ZN11TestFailureC1EP10UtestShellRK12SimpleString T
_ZN11TestFailureC1ERKS_ T
_ZN11TestFailureC2EP10UtestShellPKcm T
_ZN11TestFailureC2EP10UtestShellPKcmRK12SimpleString T
_ZN11TestFailureC2EP10UtestShellRK12SimpleString T
_ZN11TestFailureC2ERKS_ T
_ZN11TestFailureD0Ev T
_ZN11TestFailureD1Ev T
_ZN11TestFailureD2Ev T
_ZN12CheckFailureC1EP10UtestShellPKcmRK12SimpleStringS6_S6_ T
_ZN12CheckFailureC2EP10UtestShellPKcmRK12SimpleStringS6_S6_ T
_ZN12CheckFailureD0Ev W
_ZN12CheckFailureD1Ev W
_ZN12CheckFailureD2Ev W
_ZN12ExecFunctionC1Ev T
_ZN12ExecFunctionC2Ev T
_ZN12ExecFunctionD0Ev T
_ZN12ExecFunctionD1Ev T
_ZN12ExecFunctionD2Ev T
_ZN12SimpleString15copyToNewBufferEPKcm T
_ZN12SimpleString16stringAllocator_E B 8
_ZN12SimpleString17allocStringBufferEmPKcm T
_ZN12SimpleString18getStringAllocatorEv T
_ZN12SimpleString18setStringAllocatorEP19TestMemoryAllocator T
_ZN12SimpleString19deallocStringBufferEPcmPKcm T
_ZN12SimpleString19setInternalBufferToEPcm T
_ZN12SimpleString22padStringsToSameLengthERS_S0_c T
_ZN12SimpleString24deallocateInternalBufferEv T
_ZN12SimpleString28setInternalBufferToNewBufferEm T
_ZN12SimpleString29copyBufferToNewInternalBufferEPKc T
_ZN12SimpleString29copyBufferToNewInternalBufferEPKcm T
_ZN12SimpleString29copyBufferToNewInternalBufferERKS_ T
_ZN12SimpleString30setInternalBufferAsEmptyStringEv T
_ZN12SimpleString4AtoIEPKc T
_ZN12SimpleString4AtoUEPKc T
_ZN12SimpleString6MemCmpEPKvS1_m T
_ZN12SimpleString6StrCmpEPKcS1_ T
_ZN12SimpleString6StrLenEPKc T
_ZN12SimpleString6StrStrEPKcS1_ T
_ZN12SimpleString7isDigitEc T
_ZN12SimpleString7isSpaceEc T
_ZN12SimpleString7isUpperEc T
_ZN12SimpleString7replaceEcc T
_ZN12SimpleString7replaceEPKcS1_ T
_ZN12SimpleString7StrNCmpEPKcS1_m T
_ZN12SimpleString7StrNCpyEPcPKcm T
_ZN12SimpleString7ToLowerEc T
_ZN12SimpleStringaSERKS_ T
_ZN12SimpleStringC1EPKc T
_ZN12SimpleStringC1EPKcm T
_ZN12SimpleStringC1ERKS_ T
_ZN12SimpleStringC2EPKc T
_ZN12SimpleStringC2EPKcm T
_ZN12SimpleStringC2ERKS_ T
_ZN12SimpleStringD1Ev T
_ZN12SimpleStringD2Ev T
_ZN12SimpleStringpLEPKc T
_ZN12SimpleStringpLERKS_ T
_ZN12TestRegistry10countTestsEv T
_ZN12TestRegistry10endOfGroupEP10UtestShell T
_ZN12TestRegistry11runAllTestsER10TestResult T
_ZN12TestRegistry12countPluginsEv T
_ZN12TestRegistry12getFirstTestEv T
_ZN12TestRegistry12resetPluginsEv T
_ZN12TestRegistry12reverseTestsEv T
_ZN12TestRegistry12shuffleTestsEm T
_ZN12TestRegistry13installPluginEP10TestPlugin T
_ZN12TestRegistry13setRunIgnoredEv T
_ZN12TestRegistry13testShouldRunEP10UtestShellR10TestResult T
_ZN12TestRegistry14getFirstPluginEv T
_ZN12TestRegistry14setNameFiltersEPK10TestFilter T
_ZN12TestRegistry15getPluginByNameERK12SimpleString T
_ZN12TestRegistry15getTestWithNextEP10UtestShell T
_ZN12TestRegistry15setGroupFiltersEPK10TestFilter T
_ZN12TestRegistry15unDoLastAddTestEv T
_ZN12TestRegistry16currentRegistry_E B 8
_ZN12TestRegistry16findTestWithNameERK12SimpleString T
_ZN12TestRegistry17findTestWithGroupERK12SimpleString T
_ZN12TestRegistry18getCurrentRegistryEv T
_ZN12TestRegistry18listTestGroupNamesER10TestResult T
_ZN12TestRegistry18removePluginByNameERK12SimpleString T
_ZN12TestRegistry18setCurrentRegistryEPS_ T
_ZN12TestRegistry20getCurrentRepetitionEv T
_ZN12TestRegistry25listTestGroupAndCaseNamesER10TestResult T
_ZN12TestRegistry28setRunTestsInSeperateProcessEv T
_ZN12TestRegistry7addTestEP10UtestShell T
_ZN12TestRegistryC1Ev T
_ZN12TestRegistryC2Ev T
_ZN12TestRegistryD0Ev T
_ZN12TestRegistryD1Ev T
_ZN12TestRegistryD2Ev T
_ZN13EqualsFailureC1EP10UtestShellPKcmRK12SimpleStringS6_S6_ T
_ZN13EqualsFailureC1EP10UtestShellPKcmS3_S3_RK12SimpleString T
_ZN13EqualsFailureC2EP10UtestShellPKcmRK12SimpleStringS6_S6_ T
_ZN13EqualsFailureC2EP10UtestShellPKcmS3_S3_RK12SimpleString T
_ZN13EqualsFailureD0Ev W
_ZN13EqualsFailureD1Ev W
_ZN13EqualsFailureD2Ev W
_ZN13TestInstaller4unDoEv T
_ZN13TestInstallerC1ER10UtestShellPKcS3_S3_m T
_ZN13TestInstallerC2ER10UtestShellPKcS3_S3_m T
_ZN13TestInstallerD0Ev T
_ZN13TestInstallerD1Ev T
_ZN13TestInstallerD2Ev T
_ZN14NullTestPlugin19runAllPreTestActionER10UtestShellR10TestResult T
_ZN14NullTestPlugin20runAllPostTestActionER10UtestShellR10TestResult T
_ZN14NullTestPlugin8instanceEv T
_ZN14NullTestPluginC1Ev T
_ZN14NullTestPluginC2Ev T
_ZN14NullTestPluginD0Ev W
_ZN14NullTestPluginD1Ev W
_ZN14NullTestPluginD2Ev W
_ZN14TestTerminatorC1Ev W
_ZN14TestTerminatorC2Ev W
_ZN14TestTerminatorD0Ev T
_ZN14TestTerminatorD1Ev T
_ZN14TestTerminatorD2Ev T
_ZN15ContainsFailureC1EP10UtestShellPKcmRK12SimpleStringS6_S6_ T
_ZN15ContainsFailureC2EP10UtestShellPKcmRK12SimpleStringS6_S6_ T
_ZN15ContainsFailureD0Ev W
_ZN15ContainsFailureD1Ev W
_ZN15ContainsFailureD2Ev W
_ZN15JUnitTestOutput11printBufferEPKc T
_ZN15JUnitTestOutput11writeToFileERK12SimpleString T
_ZN15JUnitTestOutput12printFailureERK11TestFailure T
_ZN15JUnitTestOutput12writeFailureEP23JUnitTestCaseResultNode T
_ZN15JUnitTestOutput13encodeXmlTextERK12SimpleString T
_ZN15JUnitTestOutput14createFileNameERK12SimpleString T
_ZN15JUnitTestOutput14encodeFileNameERK12SimpleString T
_ZN15JUnitTestOutput14setPackageNameERK12SimpleString T
_ZN15JUnitTestOutput14writeTestCasesEv T
_ZN15JUnitTestOutput14writeXmlHeaderEv T
_ZN15JUnitTestOutput15printTestsEndedERK10TestResult T
_ZN15JUnitTestOutput15writeFileEndingEv T
_ZN15JUnitTestOutput15writePropertiesEv T
_ZN15JUnitTestOutput16openFileForWriteERK12SimpleString T
_ZN15JUnitTestOutput17printTestsStartedEv T
_ZN15JUnitTestOutput20resetTestGroupResultEv T
_ZN15JUnitTestOutput20writeTestGroupToFileEv T
_ZN15JUnitTestOutput21printCurrentTestEndedERK10TestResult T
_ZN15JUnitTestOutput21writeTestSuiteSummaryEv T
_ZN15JUnitTestOutput22printCurrentGroupEndedERK10TestResult T
_ZN15JUnitTestOutput23printCurrentTestStartedERK10UtestShell T
_ZN15JUnitTestOutput24printCurrentGroupStartedERK10UtestShell T
_ZN15JUnitTestOutput5flushEv T
_ZN15JUnitTestOutput5printEl T
_ZN15JUnitTestOutput5printEm T
_ZN15JUnitTestOutput5printEPKc T
_ZN15JUnitTestOutput9closeFileEv T
_ZN15JUnitTestOutputC1Ev T
_ZN15JUnitTestOutputC2Ev T
_ZN15JUnitTestOutputD0Ev T
_ZN15JUnitTestOutputD1Ev T
_ZN15JUnitTestOutputD2Ev T
_ZN15ScopedMutexLockC1EP11SimpleMutex T
_ZN15ScopedMutexLockC2EP11SimpleMutex T
_ZN15ScopedMutexLockD1Ev T
_ZN15ScopedMutexLockD2Ev T
_ZN16BitsEqualFailureC1EP10UtestShellPKcmmmmmRK12SimpleString T
_ZN16BitsEqualFailureC2EP10UtestShellPKcmmmmmRK12SimpleString T
_ZN16BitsEqualFailureD0Ev W
_ZN16BitsEqualFailureD1Ev W
_ZN16BitsEqualFailureD2Ev W
_ZN16ExecFunctionTest5setupEv T
_ZN16ExecFunctionTest8teardownEv T
_ZN16ExecFunctionTest8testBodyEv T
_ZN16ExecFunctionTestC1EP21ExecFunctionTestShell T
_ZN16ExecFunctionTestC2EP21ExecFunctionTestShell T
_ZN16ExecFunctionTestD0Ev W
_ZN16ExecFunctionTestD1Ev W
_ZN16ExecFunctionTestD2Ev W
_ZN16MemoryAccountant12setAllocatorEP19TestMemoryAllocator T
_ZN16MemoryAccountant13useCacheSizesEPmm T
_ZN16MemoryAccountant20createCacheSizeNodesEPmm T
_ZN16MemoryAccountant22findOrCreateNodeOfSizeEm T
_ZN16MemoryAccountant5allocEm T
_ZN16MemoryAccountant5clearEv T
_ZN16MemoryAccountant7deallocEm T
_ZN16MemoryAccountantC1Ev T
_ZN16MemoryAccountantC2Ev T
_ZN16MemoryAccountantD1Ev T
_ZN16MemoryAccountantD2Ev T
_ZN16SetPointerPlugin14postTestActionER10UtestShellR10TestResult T
_ZN16SetPointerPluginC1ERK12SimpleString T
_ZN16SetPointerPluginC2ERK12SimpleString T
_ZN16SetPointerPluginD0Ev W
_ZN16SetPointerPluginD1Ev W
_ZN16SetPointerPluginD2Ev W
_ZN17CheckEqualFailureC1EP10UtestShellPKcmRK12SimpleStringS6_S6_ T
_ZN17CheckEqualFailureC2EP10UtestShellPKcmRK12SimpleStringS6_S6_ T
_ZN17CheckEqualFailureD0Ev W
_ZN17CheckEqualFailureD1Ev W
_ZN17CheckEqualFailureD2Ev W
_ZN17ComparisonFailureC1EP10UtestShellPKcmRK12SimpleStringS6_S6_ T
_ZN17ComparisonFailureC2EP10UtestShellPKcmRK12SimpleStringS6_S6_ T
_ZN17ComparisonFailureD0Ev W
_ZN17ComparisonFailureD1Ev W
_ZN17ComparisonFailureD2Ev W
_ZN17ConsoleTestOutput11printBufferEPKc T
_ZN17ConsoleTestOutput5flushEv T
_ZN17ConsoleTestOutputC1Ev W
_ZN17ConsoleTestOutputC2Ev W
_ZN17ConsoleTestOutputD0Ev W
_ZN17ConsoleTestOutputD1Ev W
_ZN17ConsoleTestOutputD2Ev W
_ZN17HelperTestRunInfoC1EP10UtestShellP10TestPluginP10TestResult W
_ZN17HelperTestRunInfoC2EP10UtestShellP10TestPluginP10TestResult W
_ZN17IgnoredUtestShell10runOneTestEP10TestPluginR10TestResult T
_ZN17IgnoredUtestShell13setRunIgnoredEv T
_ZN17IgnoredUtestShellC1EPKcS1_S1_m T
_ZN17IgnoredUtestShellC1Ev T
_ZN17IgnoredUtestShellC2EPKcS1_S1_m T
_ZN17IgnoredUtestShellC2Ev T
_ZN17IgnoredUtestShellD0Ev T
_ZN17IgnoredUtestShellD1Ev T
_ZN17IgnoredUtestShellD2Ev T
_ZN17LongsEqualFailureC1EP10UtestShellPKcmllRK12SimpleString T
_ZN17LongsEqualFailureC2EP10UtestShellPKcmllRK12SimpleString T
_ZN17LongsEqualFailureD0Ev W
_ZN17LongsEqualFailureD1Ev W
_ZN17LongsEqualFailureD2Ev W
_ZN17MemoryLeakFailureC1Ev W
_ZN17MemoryLeakFailureC2Ev W
_ZN17MemoryLeakFailureD0Ev W
_ZN17MemoryLeakFailureD1Ev W
_ZN17MemoryLeakFailureD2Ev W
_ZN18BinaryEqualFailureC1EP10UtestShellPKcmPKhS5_mRK12SimpleString T
_ZN18BinaryEqualFailureC2EP10UtestShellPKcmPKhS5_mRK12SimpleString T
_ZN18BinaryEqualFailureD0Ev W
_ZN18BinaryEqualFailureD1Ev W
_ZN18BinaryEqualFailureD2Ev W
_ZN18MemLeakScopedMutexC1Ev W
_ZN18MemLeakScopedMutexC2Ev W
_ZN18MemLeakScopedMutexD1Ev W
_ZN18MemLeakScopedMutexD2Ev W
_ZN18MemoryLeakDetector101removeMemoryLeakInformationWithoutCheckingOrDeallocatingTheMemoryButDeallocatingTheAccountInformationEP19TestMemoryAllocatorPvb T
_ZN18MemoryLeakDetector11allocMemoryEP19TestMemoryAllocatormb T
_ZN18MemoryLeakDetector11allocMemoryEP19TestMemoryAllocatormPKcmb T
_ZN18MemoryLeakDetector12stopCheckingEv T
_ZN18MemoryLeakDetector13deallocMemoryEP19TestMemoryAllocatorPvb T
_ZN18MemoryLeakDetector13deallocMemoryEP19TestMemoryAllocatorPvPKcmb T
_ZN18MemoryLeakDetector13reallocMemoryEP19TestMemoryAllocatorPcmPKcmb T
_ZN18MemoryLeakDetector13startCheckingEv T
_ZN18MemoryLeakDetector16invalidateMemoryEPc T
_ZN18MemoryLeakDetector16totalMemoryLeaksE13MemLeakPeriod T
_ZN18MemoryLeakDetector18checkForCorruptionEP22MemoryLeakDetectorNodePKcmP19TestMemoryAllocatorb T
_ZN18MemoryLeakDetector18clearAllAccountingE13MemLeakPeriod T
_ZN18MemoryLeakDetector18matchingAllocationEP19TestMemoryAllocatorS1_ T
_ZN18MemoryLeakDetector20storeLeakInformationEP22MemoryLeakDetectorNodePcmP19TestMemoryAllocatorPKcm T
_ZN18MemoryLeakDetector23decreaseAllocationStageEv T
_ZN18MemoryLeakDetector23increaseAllocationStageEv T
_ZN18MemoryLeakDetector24getNodeFromMemoryPointerEPcm T
_ZN18MemoryLeakDetector25ConstructMemoryLeakReportE13MemLeakPeriod T
_ZN18MemoryLeakDetector26getCurrentAllocationNumberEv T
_ZN18MemoryLeakDetector28enableAllocationTypeCheckingEv T
_ZN18MemoryLeakDetector29disableAllocationTypeCheckingEv T
_ZN18MemoryLeakDetector30addMemoryCorruptionInformationEPc T
_ZN18MemoryLeakDetector30sizeOfMemoryWithCorruptionInfoEm T
_ZN18MemoryLeakDetector32validMemoryCorruptionInformationEPc T
_ZN18MemoryLeakDetector34reallocateMemoryAndLeakInformationEP19TestMemoryAllocatorPcmPKcmb T
_ZN18MemoryLeakDetector37createMemoryLeakAccountingInformationEP19TestMemoryAllocatormPcb T
_ZN18MemoryLeakDetector39allocateMemoryWithAccountingInformationEP19TestMemoryAllocatormPKcmb T
_ZN18MemoryLeakDetector40deallocAllMemoryInCurrentAllocationStageEv T
_ZN18MemoryLeakDetector41reallocateMemoryWithAccountingInformationEP19TestMemoryAllocatorPcmPKcmb T
_ZN18MemoryLeakDetector42markCheckingPeriodLeaksAsNonCheckingPeriodEv T
_ZN18MemoryLeakDetector6enableEv T
_ZN18MemoryLeakDetector6reportE13MemLeakPeriod T
_ZN18MemoryLeakDetector7disableEv T
_ZN18MemoryLeakDetector8getMutexEv T
_ZN18MemoryLeakDetectorC1EP17MemoryLeakFailure T
_ZN18MemoryLeakDetectorC2EP17MemoryLeakFailure T
_ZN18MemoryLeakDetectorD0Ev T
_ZN18MemoryLeakDetectorD1Ev T
_ZN18MemoryLeakDetectorD2Ev T
_ZN18SimpleStringBuffer13addMemoryDumpEPKvm T
_ZN18SimpleStringBuffer13setWriteLimitEm T
_ZN18SimpleStringBuffer15resetWriteLimitEv T
_ZN18SimpleStringBuffer18reachedItsCapacityEv T
_ZN18SimpleStringBuffer3addEPKcz T
_ZN18SimpleStringBuffer5clearEv T
_ZN18SimpleStringBuffer8toStringEv T
_ZN18SimpleStringBufferC1Ev T
_ZN18SimpleStringBufferC2Ev T
_ZN18StringEqualFailureC1EP10UtestShellPKcmS3_S3_RK12SimpleString T
_ZN18StringEqualFailureC2EP10UtestShellPKcmS3_S3_RK12SimpleString T
_ZN18StringEqualFailureD0Ev W
_ZN18StringEqualFailureD1Ev W
_ZN18StringEqualFailureD2Ev W
_ZN18TeamCityTestOutput12printEscapedEPKc T
_ZN18TeamCityTestOutput12printFailureERK11TestFailure T
_ZN18TeamCityTestOutput21printCurrentTestEndedERK10TestResult T
_ZN18TeamCityTestOutput22printCurrentGroupEndedERK10TestResult T
_ZN18TeamCityTestOutput23printCurrentTestStartedERK10UtestShell T
_ZN18TeamCityTestOutput24printCurrentGroupStartedERK10UtestShell T
_ZN18TeamCityTestOutputC1Ev T
_ZN18TeamCityTestOutputC2Ev T
_ZN18TeamCityTestOutputD0Ev T
_ZN18TeamCityTestOutputD1Ev T
_ZN18TeamCityTestOutputD2Ev T
_ZN18TestTestingFixture11getRegistryEv T
_ZN18TestTestingFixture11getRunCountEv T
_ZN18TestTestingFixture11runAllTestsEv T
_ZN18TestTestingFixture11setTeardownEPFvvE T
_ZN18TestTestingFixture12getTestCountEv T
_ZN18TestTestingFixture13getCheckCountEv T
_ZN18TestTestingFixture13hasTestFailedEv T
_ZN18TestTestingFixture13installPluginEP10TestPlugin T
_ZN18TestTestingFixture14getIgnoreCountEv T
_ZN18TestTestingFixture15getFailureCountEv T
_ZN18TestTestingFixture15setTestFunctionEP12ExecFunction T
_ZN18TestTestingFixture15setTestFunctionEPFvvE T
_ZN18TestTestingFixture16setOutputVerboseEv T
_ZN18TestTestingFixture17clearExecFunctionEv T
_ZN18TestTestingFixture17runTestWithMethodEPFvvE T
_ZN18TestTestingFixture19assertPrintContainsERK12SimpleString T
_ZN18TestTestingFixture22assertPrintContainsNotERK12SimpleString T
_ZN18TestTestingFixture22lineExecutedAfterCheckEv T
_ZN18TestTestingFixture25flushOutputAndResetResultEv T
_ZN18TestTestingFixture28lineOfCodeExecutedAfterCheckE B 1
_ZN18TestTestingFixture28setRunTestsInSeperateProcessEv T
_ZN18TestTestingFixture36checkTestFailsWithProperTestLocationEPKcS1_m T
_ZN18TestTestingFixture7addTestEP10UtestShell T
_ZN18TestTestingFixture8setSetupEPFvvE T
_ZN18TestTestingFixture9getOutputEv T
_ZN18TestTestingFixtureC1Ev T
_ZN18TestTestingFixtureC2Ev T
_ZN18TestTestingFixtureD0Ev T
_ZN18TestTestingFixtureD1Ev T
_ZN18TestTestingFixtureD2Ev T
_ZN19CompositeTestOutput11printBufferEPKc T
_ZN19CompositeTestOutput11printDoubleEd T
_ZN19CompositeTestOutput12printFailureERK11TestFailure T
_ZN19CompositeTestOutput12setOutputOneEP10TestOutput T
_ZN19CompositeTestOutput12setOutputTwoEP10TestOutput T
_ZN19CompositeTestOutput15printTestsEndedERK10TestResult T
_ZN19CompositeTestOutput17printTestsStartedEv T
_ZN19CompositeTestOutput20setProgressIndicatorEPKc T
_ZN19CompositeTestOutput21printCurrentTestEndedERK10TestResult T
_ZN19CompositeTestOutput22printCurrentGroupEndedERK10TestResult T
_ZN19CompositeTestOutput23printCurrentTestStartedERK10UtestShell T
_ZN19CompositeTestOutput24printCurrentGroupStartedERK10UtestShell T
_ZN19CompositeTestOutput5colorEv T
_ZN19CompositeTestOutput5flushEv T
_ZN19CompositeTestOutput5printEl T
_ZN19CompositeTestOutput5printEm T
_ZN19CompositeTestOutput5printEPKc T
_ZN19CompositeTestOutput7verboseEN10TestOutput14VerbosityLevelE T
_ZN19CompositeTestOutputC1Ev T
_ZN19CompositeTestOutputC2Ev T
_ZN19CompositeTestOutputD0Ev T
_ZN19CompositeTestOutputD1Ev T
_ZN19CompositeTestOutputD2Ev T
_ZN19DoublesEqualFailureC1EP10UtestShellPKcmdddRK12SimpleString T
_ZN19DoublesEqualFailureC2EP10UtestShellPKcmdddRK12SimpleString T
_ZN19DoublesEqualFailureD0Ev W
_ZN19DoublesEqualFailureD1Ev W
_ZN19DoublesEqualFailureD2Ev W
_ZN19JUnitTestOutputImplC1Ev W
_ZN19JUnitTestOutputImplC2Ev W
_ZN19JUnitTestOutputImplD1Ev W
_ZN19JUnitTestOutputImplD2Ev W
_ZN19MemoryLeakAllocator11free_memoryEPcmPKcm T
_ZN19MemoryLeakAllocator12alloc_memoryEmPKcm T
_ZN19MemoryLeakAllocator15actualAllocatorEv T
_ZN19MemoryLeakAllocatorC1EP19TestMemoryAllocator T
_ZN19MemoryLeakAllocatorC2EP19TestMemoryAllocator T
_ZN19MemoryLeakAllocatorD0Ev T
_ZN19MemoryLeakAllocatorD1Ev T
_ZN19MemoryLeakAllocatorD2Ev T
_ZN19TestMemoryAllocator11free_memoryEPcmPKcm T
_ZN19TestMemoryAllocator12alloc_memoryEmPKcm T
_ZN19TestMemoryAllocator13isOfEqualTypeEPS_ T
_ZN19TestMemoryAllocator15actualAllocatorEv T
_ZN19TestMemoryAllocator16hasBeenDestroyedEv T
_ZN19TestMemoryAllocator18freeMemoryLeakNodeEPc T
_ZN19TestMemoryAllocator19allocMemoryLeakNodeEm T
_ZN19TestMemoryAllocatorC1EPKcS1_S1_ T
_ZN19TestMemoryAllocatorC2EPKcS1_S1_ T
_ZN19TestMemoryAllocatorD0Ev T
_ZN19TestMemoryAllocatorD1Ev T
_ZN19TestMemoryAllocatorD2Ev T
_ZN20CommandLineArguments10setShuffleEiPKPKcRi T
_ZN20CommandLineArguments13addNameFilterEiPKPKcRi T
_ZN20CommandLineArguments13setOutputTypeEiPKPKcRi T
_ZN20CommandLineArguments14addGroupFilterEiPKPKcRi T
_ZN20CommandLineArguments14setPackageNameEiPKPKcRi T
_ZN20CommandLineArguments14setRepeatCountEiPKPKcRi T
_ZN20CommandLineArguments17getParameterFieldEiPKPKcRiRK12SimpleString T
_ZN20CommandLineArguments19addStrictNameFilterEiPKPKcRi T
_ZN20CommandLineArguments20addExcludeNameFilterEiPKPKcRi T
_ZN20CommandLineArguments20addStrictGroupFilterEiPKPKcRi T
_ZN20CommandLineArguments21addExcludeGroupFilterEiPKPKcRi T
_ZN20CommandLineArguments21addGroupDotNameFilterEiPKPKcRi T
_ZN20CommandLineArguments26addExcludeStrictNameFilterEiPKPKcRi T
_ZN20CommandLineArguments27addExcludeStrictGroupFilterEiPKPKcRi T
_ZN20CommandLineArguments32addTestToRunBasedOnVerboseOutputEiPKPKcRiS1_ T
_ZN20CommandLineArguments5parseEP10TestPlugin T
_ZN20CommandLineArgumentsC1EiPKPKc T
_ZN20CommandLineArgumentsC2EiPKPKc T
_ZN20CommandLineArgumentsD0Ev T
_ZN20CommandLineArgumentsD1Ev T
_ZN20CommandLineArgumentsD2Ev T
_ZN20JUnitTestGroupResultC1Ev W
_ZN20JUnitTestGroupResultC2Ev W
_ZN20JUnitTestGroupResultD1Ev W
_ZN20JUnitTestGroupResultD2Ev W
_ZN20NormalTestTerminatorD0Ev T
_ZN20NormalTestTerminatorD1Ev T
_ZN20NormalTestTerminatorD2Ev T
_ZN20NullUnknownAllocator11free_memoryEPcmPKcm T
_ZN20NullUnknownAllocator12alloc_memoryEmPKcm T
_ZN20NullUnknownAllocator16defaultAllocatorEv T
_ZN20NullUnknownAllocatorC1Ev T
_ZN20NullUnknownAllocatorC2Ev T
_ZN20NullUnknownAllocatorD0Ev T
_ZN20NullUnknownAllocatorD1Ev T
_ZN20NullUnknownAllocatorD2Ev T
_ZN21CommandLineTestRunner11RunAllTestsEiPKPKc T
_ZN21CommandLineTestRunner11RunAllTestsEiPPc T
_ZN21CommandLineTestRunner11runAllTestsEv T
_ZN21CommandLineTestRunner14parseArgumentsEP10TestPlugin T
_ZN21CommandLineTestRunner15runAllTestsMainEv T
_ZN21CommandLineTestRunner17createJUnitOutputERK12SimpleString T
_ZN21CommandLineTestRunner17initializeTestRunEv T
_ZN21CommandLineTestRunner19createConsoleOutputEv T
_ZN21CommandLineTestRunner20createTeamCityOutputEv T
_ZN21CommandLineTestRunner21createCompositeOutputEP10TestOutputS1_ T
_ZN21CommandLineTestRunnerC1EiPKPKcP12TestRegistry T
_ZN21CommandLineTestRunnerC2EiPKPKcP12TestRegistry T
_ZN21CommandLineTestRunnerD0Ev T
_ZN21CommandLineTestRunnerD1Ev T
_ZN21CommandLineTestRunnerD2Ev T
_ZN21ExecFunctionTestShell10createTestEv W
_ZN21ExecFunctionTestShellC1EPFvvES1_ W
_ZN21ExecFunctionTestShellC2EPFvvES1_ W
_ZN21ExecFunctionTestShellD0Ev T
_ZN21ExecFunctionTestShellD1Ev T
_ZN21ExecFunctionTestShellD2Ev T
_ZN21LongLongsEqualFailureC1EP10UtestShellPKcmxxRK12SimpleString T
_ZN21LongLongsEqualFailureC2EP10UtestShellPKcmxxRK12SimpleString T
_ZN21LongLongsEqualFailureD0Ev W
_ZN21LongLongsEqualFailureD1Ev W
_ZN21LongLongsEqualFailureD2Ev W
_ZN22CrashingTestTerminatorD0Ev T
_ZN22CrashingTestTerminatorD1Ev T
_ZN22CrashingTestTerminatorD2Ev T
_ZN22GlobalMemoryAccountant13useCacheSizesEPmm T
_ZN22GlobalMemoryAccountant15getNewAllocatorEv T
_ZN22GlobalMemoryAccountant18getMallocAllocatorEv T
_ZN22GlobalMemoryAccountant20getNewArrayAllocatorEv T
_ZN22GlobalMemoryAccountant23restoreMemoryAllocatorsEv T
_ZN22GlobalMemoryAccountant4stopEv T
_ZN22GlobalMemoryAccountant5startEv T
_ZN22GlobalMemoryAccountant6reportEv T
_ZN22GlobalMemoryAccountantC1Ev T
_ZN22GlobalMemoryAccountantC2Ev T
_ZN22GlobalMemoryAccountantD1Ev T
_ZN22GlobalMemoryAccountantD2Ev T
_ZN22MemoryLeakDetectorList10addNewNodeEP22MemoryLeakDetectorNode T
_ZN22MemoryLeakDetectorList10isInPeriodEP22MemoryLeakDetectorNode13MemLeakPeriod T
_ZN22MemoryLeakDetectorList10removeNodeEPc T
_ZN22MemoryLeakDetectorList11getLeakFromEP22MemoryLeakDetectorNode13MemLeakPeriod T
_ZN22MemoryLeakDetectorList11getNextLeakEP22MemoryLeakDetectorNode13MemLeakPeriod T
_ZN22MemoryLeakDetectorList12getFirstLeakE13MemLeakPeriod T
_ZN22MemoryLeakDetectorList12retrieveNodeEPc T
_ZN22MemoryLeakDetectorList13getTotalLeaksE13MemLeakPeriod T
_ZN22MemoryLeakDetectorList18clearAllAccountingE13MemLeakPeriod T
_ZN22MemoryLeakDetectorList19isInAllocationStageEP22MemoryLeakDetectorNodeh T
_ZN22MemoryLeakDetectorList29getLeakForAllocationStageFromEP22MemoryLeakDetectorNodeh T
_ZN22MemoryLeakDetectorList29getNextLeakForAllocationStageEP22MemoryLeakDetectorNodeh T
_ZN22MemoryLeakDetectorList30getFirstLeakForAllocationStageEh T
_ZN22MemoryLeakDetectorListC1Ev W
_ZN22MemoryLeakDetectorListC2Ev W
_ZN22MemoryLeakDetectorNode4initEPcjmP19TestMemoryAllocator13MemLeakPeriodhPKcm T
_ZN22OutsideTestRunnerUTest13getTestResultEv W
_ZN22OutsideTestRunnerUTest8instanceEv T
_ZN22OutsideTestRunnerUTestC1Ev W
_ZN22OutsideTestRunnerUTestC2Ev W
_ZN22OutsideTestRunnerUTestD0Ev W
_ZN22OutsideTestRunnerUTestD1Ev W
_ZN22OutsideTestRunnerUTestD2Ev W
_ZN22SimpleStringCollection8allocateEm T
_ZN22SimpleStringCollectionC1Ev T
_ZN22SimpleStringCollectionC2Ev T
_ZN22SimpleStringCollectionD1Ev T
_ZN22SimpleStringCollectionD2Ev T
_ZN22SimpleStringCollectionixEm T
_ZN22StringBufferTestOutput11printBufferEPKc W
_ZN22StringBufferTestOutput5flushEv W
_ZN22StringBufferTestOutput9getOutputEv W
_ZN22StringBufferTestOutputC1Ev W
_ZN22StringBufferTestOutputC2Ev W
_ZN22StringBufferTestOutputD0Ev T
_ZN22StringBufferTestOutputD1Ev T
_ZN22StringBufferTestOutputD2Ev T
_ZN22UtestShellPointerArray18relinkTestsInOrderEv T
_ZN22UtestShellPointerArray4swapEmm T
_ZN22UtestShellPointerArray7reverseEv T
_ZN22UtestShellPointerArray7shuffleEm T
_ZN22UtestShellPointerArrayC1EP10UtestShell T
_ZN22UtestShellPointerArrayC2EP10UtestShell T
_ZN22UtestShellPointerArrayD1Ev T
_ZN22UtestShellPointerArrayD2Ev T
_ZN23FailableMemoryAllocator12alloc_memoryEmPKcm T
_ZN23FailableMemoryAllocator14failNthAllocAtEiPKcm T
_ZN23FailableMemoryAllocator15failAllocNumberEi T
_ZN23FailableMemoryAllocator17clearFailedAllocsEv T
_ZN23FailableMemoryAllocator19allocMemoryLeakNodeEm T
_ZN23FailableMemoryAllocator28checkAllFailedAllocsWereDoneEv T
_ZN23FailableMemoryAllocatorC1EPKcS1_S1_ T
_ZN23FailableMemoryAllocatorC2EPKcS1_S1_ T
_ZN23FailableMemoryAllocatorD0Ev T
_ZN23FailableMemoryAllocatorD1Ev T
_ZN23FailableMemoryAllocatorD2Ev T
_ZN23JUnitTestCaseResultNodeC1Ev W
_ZN23JUnitTestCaseResultNodeC2Ev W
_ZN23JUnitTestCaseResultNodeD1Ev W
_ZN23JUnitTestCaseResultNodeD2Ev W
_ZN23LocationToFailAllocNode10shouldFailEiPKcm W
_ZN23LocationToFailAllocNode14failNthAllocAtEiPKcmPS_ W
_ZN23LocationToFailAllocNode17failAtAllocNumberEiPS_ W
_ZN23LocationToFailAllocNode4initEPS_ W
_ZN23MemoryLeakDetectorTable10addNewNodeEP22MemoryLeakDetectorNode T
_ZN23MemoryLeakDetectorTable10removeNodeEPc T
_ZN23MemoryLeakDetectorTable11getNextLeakEP22MemoryLeakDetectorNode13MemLeakPeriod T
_ZN23MemoryLeakDetectorTable12getFirstLeakE13MemLeakPeriod T
_ZN23MemoryLeakDetectorTable12retrieveNodeEPc T
_ZN23MemoryLeakDetectorTable13getTotalLeaksE13MemLeakPeriod T
_ZN23MemoryLeakDetectorTable18clearAllAccountingE13MemLeakPeriod T
_ZN23MemoryLeakDetectorTable29getNextLeakForAllocationStageEP22MemoryLeakDetectorNodeh T
_ZN23MemoryLeakDetectorTable30getFirstLeakForAllocationStageEh T
_ZN23MemoryLeakDetectorTable4hashEPc T
_ZN23MemoryLeakDetectorTableC1Ev W
_ZN23MemoryLeakDetectorTableC2Ev W
_ZN23MemoryLeakWarningPlugin11FinalReportEm T
_ZN23MemoryLeakWarningPlugin12firstPlugin_E B 8
_ZN23MemoryLeakWarningPlugin13preTestActionER10UtestShellR10TestResult T
_ZN23MemoryLeakWarningPlugin14getFirstPluginEv T
_ZN23MemoryLeakWarningPlugin14postTestActionER10UtestShellR10TestResult T
_ZN23MemoryLeakWarningPlugin17expectLeaksInTestEm T
_ZN23MemoryLeakWarningPlugin17getGlobalDetectorEv T
_ZN23MemoryLeakWarningPlugin17setGlobalDetectorEP18MemoryLeakDetectorP17MemoryLeakFailure T
_ZN23MemoryLeakWarningPlugin20ignoreAllLeaksInTestEv T
_ZN23MemoryLeakWarningPlugin21destroyGlobalDetectorEv T
_ZN23MemoryLeakWarningPlugin21getMemoryLeakDetectorEv T
_ZN23MemoryLeakWarningPlugin22areNewDeleteOverloadedEv T
_ZN23MemoryLeakWarningPlugin24getGlobalFailureReporterEv T
_ZN23MemoryLeakWarningPlugin25restoreNewDeleteOverloadsEv T
_ZN23MemoryLeakWarningPlugin25turnOffNewDeleteOverloadsEv T
_ZN23MemoryLeakWarningPlugin32saveAndDisableNewDeleteOverloadsEv T
_ZN23MemoryLeakWarningPlugin34turnOnThreadSafeNewDeleteOverloadsEv T
_ZN23MemoryLeakWarningPlugin44turnOnDefaultNotThreadSafeNewDeleteOverloadsEv T
_ZN23MemoryLeakWarningPlugin62destroyGlobalDetectorAndTurnOffMemoryLeakDetectionInDestructorEb T
_ZN23MemoryLeakWarningPluginC1ERK12SimpleStringP18MemoryLeakDetector T
_ZN23MemoryLeakWarningPluginC2ERK12SimpleStringP18MemoryLeakDetector T
_ZN23MemoryLeakWarningPluginD0Ev T
_ZN23MemoryLeakWarningPluginD1Ev T
_ZN23MemoryLeakWarningPluginD2Ev T
_ZN23SignedBytesEqualFailureC1EP10UtestShellPKcmaaRK12SimpleString T
_ZN23SignedBytesEqualFailureC2EP10UtestShellPKcmaaRK12SimpleString T
_ZN23SignedBytesEqualFailureD0Ev W
_ZN23SignedBytesEqualFailureD1Ev W
_ZN23SignedBytesEqualFailureD2Ev W
_ZN24StringEqualNoCaseFailureC1EP10UtestShellPKcmS3_S3_RK12SimpleString T
_ZN24StringEqualNoCaseFailureC2EP10UtestShellPKcmS3_S3_RK12SimpleString T
_ZN24StringEqualNoCaseFailureD0Ev W
_ZN24StringEqualNoCaseFailureD1Ev W
_ZN24StringEqualNoCaseFailureD2Ev W
_ZN25FeatureUnsupportedFailureC1EP10UtestShellPKcmRK12SimpleStringS6_ T
_ZN25FeatureUnsupportedFailureC2EP10UtestShellPKcmRK12SimpleStringS6_ T
_ZN25FeatureUnsupportedFailureD0Ev W
_ZN25FeatureUnsupportedFailureD1Ev W
_ZN25FeatureUnsupportedFailureD2Ev W
_ZN25MemoryLeakWarningReporter4failEPc W
_ZN25MemoryLeakWarningReporterC1Ev W
_ZN25MemoryLeakWarningReporterC2Ev W
_ZN25MemoryLeakWarningReporterD0Ev W
_ZN25MemoryLeakWarningReporterD1Ev W
_ZN25MemoryLeakWarningReporterD2Ev W
_ZN25UnsignedLongsEqualFailureC1EP10UtestShellPKcmmmRK12SimpleString T
_ZN25UnsignedLongsEqualFailureC2EP10UtestShellPKcmmmRK12SimpleString T
_ZN25UnsignedLongsEqualFailureD0Ev W
_ZN25UnsignedLongsEqualFailureD1Ev W
_ZN25UnsignedLongsEqualFailureD2Ev W
_ZN26CrashOnAllocationAllocator12alloc_memoryEmPKcm T
_ZN26CrashOnAllocationAllocator18setNumberToCrashOnEj T
_ZN26CrashOnAllocationAllocatorC1Ev T
_ZN26CrashOnAllocationAllocatorC2Ev T
_ZN26CrashOnAllocationAllocatorD0Ev T
_ZN26CrashOnAllocationAllocatorD1Ev T
_ZN26CrashOnAllocationAllocatorD2Ev T
_ZN26GlobalMemoryAllocatorStash4saveEv T
_ZN26GlobalMemoryAllocatorStash7restoreEv T
_ZN26GlobalMemoryAllocatorStashC1Ev T
_ZN26GlobalMemoryAllocatorStashC2Ev T
_ZN28MemoryLeakOutputStringBuffer13reportFailureEPKcS1_mmP19TestMemoryAllocatorS1_mS3_P17MemoryLeakFailure T
_ZN28MemoryLeakOutputStringBuffer16reportMemoryLeakEP22MemoryLeakDetectorNode T
_ZN28MemoryLeakOutputStringBuffer19addMemoryLeakFooterEm T
_ZN28MemoryLeakOutputStringBuffer19addMemoryLeakHeaderEv T
_ZN28MemoryLeakOutputStringBuffer21addAllocationLocationEPKcmmP19TestMemoryAllocator T
_ZN28MemoryLeakOutputStringBuffer23addDeallocationLocationEPKcmP19TestMemoryAllocator T
_ZN28MemoryLeakOutputStringBuffer23addNoMemoryLeaksMessageEv T
_ZN28MemoryLeakOutputStringBuffer23stopMemoryLeakReportingEv T
_ZN28MemoryLeakOutputStringBuffer24addWarningForUsingMallocEv T
_ZN28MemoryLeakOutputStringBuffer24startMemoryLeakReportingEv T
_ZN28MemoryLeakOutputStringBuffer29reportMemoryCorruptionFailureEP22MemoryLeakDetectorNodePKcmP19TestMemoryAllocatorP17MemoryLeakFailure T
_ZN28MemoryLeakOutputStringBuffer30addErrorMessageForTooMuchLeaksEv T
_ZN28MemoryLeakOutputStringBuffer41reportDeallocateNonAllocatedMemoryFailureEPKcmP19TestMemoryAllocatorP17MemoryLeakFailure T
_ZN28MemoryLeakOutputStringBuffer43reportAllocationDeallocationMismatchFailureEP22MemoryLeakDetectorNodePKcmP19TestMemoryAllocatorP17MemoryLeakFailure T
_ZN28MemoryLeakOutputStringBuffer5clearEv T
_ZN28MemoryLeakOutputStringBuffer8toStringEv T
_ZN28MemoryLeakOutputStringBufferC1Ev T
_ZN28MemoryLeakOutputStringBufferC2Ev T
_ZN29AccountingTestMemoryAllocator11free_memoryEPcmPKcm T
_ZN29AccountingTestMemoryAllocator12alloc_memoryEmPKcm T
_ZN29AccountingTestMemoryAllocator15actualAllocatorEv T
_ZN29AccountingTestMemoryAllocator17originalAllocatorEv T
_ZN29AccountingTestMemoryAllocator23removeHeadAndReturnSizeEv T
_ZN29AccountingTestMemoryAllocator27removeNextNodeAndReturnSizeEP39AccountingTestMemoryAllocatorMemoryNode T
_ZN29AccountingTestMemoryAllocator42addMemoryToMemoryTrackingToKeepTrackOfSizeEPcm T
_ZN29AccountingTestMemoryAllocator46removeMemoryFromTrackingAndReturnAllocatedSizeEPc T
_ZN29AccountingTestMemoryAllocatorC1ER16MemoryAccountantP19TestMemoryAllocator T
_ZN29AccountingTestMemoryAllocatorC2ER16MemoryAccountantP19TestMemoryAllocator T
_ZN29AccountingTestMemoryAllocatorD0Ev T
_ZN29AccountingTestMemoryAllocatorD1Ev T
_ZN29AccountingTestMemoryAllocatorD2Ev T
_ZN29ExecFunctionWithoutParameters4execEv T
_ZN29ExecFunctionWithoutParametersC1EPFvvE T
_ZN29ExecFunctionWithoutParametersC2EPFvvE T
_ZN29ExecFunctionWithoutParametersD0Ev T
_ZN29ExecFunctionWithoutParametersD1Ev T
_ZN29ExecFunctionWithoutParametersD2Ev T
_ZN29UnsignedLongLongsEqualFailureC1EP10UtestShellPKcmyyRK12SimpleString T
_ZN29UnsignedLongLongsEqualFailureC2EP10UtestShellPKcmyyRK12SimpleString T
_ZN29UnsignedLongLongsEqualFailureD0Ev W
_ZN29UnsignedLongLongsEqualFailureD1Ev W
_ZN29UnsignedLongLongsEqualFailureD2Ev W
_ZN31TestTerminatorWithoutExceptionsC1Ev W
_ZN31TestTerminatorWithoutExceptionsC2Ev W
_ZN31TestTerminatorWithoutExceptionsD0Ev T
_ZN31TestTerminatorWithoutExceptionsD1Ev T
_ZN31TestTerminatorWithoutExceptionsD2Ev T
_ZN32GlobalSimpleStringAllocatorStash4saveEv T
_ZN32GlobalSimpleStringAllocatorStash7restoreEv T
_ZN32GlobalSimpleStringAllocatorStashC1Ev T
_ZN32GlobalSimpleStringAllocatorStashC2Ev T
_ZN34GlobalSimpleStringMemoryAccountant12getAllocatorEv T
_ZN34GlobalSimpleStringMemoryAccountant13useCacheSizesEPmm T
_ZN34GlobalSimpleStringMemoryAccountant16restoreAllocatorEv T
_ZN34GlobalSimpleStringMemoryAccountant4stopEv T
_ZN34GlobalSimpleStringMemoryAccountant5startEv T
_ZN34GlobalSimpleStringMemoryAccountant6reportEv T
_ZN34GlobalSimpleStringMemoryAccountantC1Ev T
_ZN34GlobalSimpleStringMemoryAccountantC2Ev T
_ZN34GlobalSimpleStringMemoryAccountantD1Ev T
_ZN34GlobalSimpleStringMemoryAccountantD2Ev T
_ZN5Utest3runEv T
_ZN5Utest5setupEv T
_ZN5Utest8teardownEv T
_ZN5Utest8testBodyEv T
_ZN5UtestC1Ev T
_ZN5UtestC2Ev T
_ZN5UtestD0Ev T
_ZN5UtestD1Ev T
_ZN5UtestD2Ev T
_Znam T
_ZnamPKci T
_ZnamPKcm T
_ZnamRKSt9nothrow_t T
_ZneRK12SimpleStringS1_ T
_ZNK10TestFilter5matchERK12SimpleString T
_ZNK10TestFilter7getNextEv T
_ZNK10TestFilter8asStringEv T
_ZNK10TestFiltereqERKS_ T
_ZNK10TestFilterneERKS_ T
_ZNK10TestResult11getRunCountEv W
_ZNK10TestResult12getTestCountEv W
_ZNK10TestResult13getCheckCountEv W
_ZNK10TestResult15getFailureCountEv W
_ZNK10TestResult15getIgnoredCountEv W
_ZNK10TestResult19getFilteredOutCountEv W
_ZNK10TestResult21getTotalExecutionTimeEv T
_ZNK10TestResult32getCurrentTestTotalExecutionTimeEv T
_ZNK10TestResult33getCurrentGroupTotalExecutionTimeEv T
_ZNK10TestResult9isFailureEv W
_ZNK10UtestShell12getMacroNameEv T
_ZNK10UtestShell13getLineNumberEv T
_ZNK10UtestShell16getFormattedNameEv T
_ZNK10UtestShell22isRunInSeperateProcessEv T
_ZNK10UtestShell5matchEPKcPK10TestFilter T
_ZNK10UtestShell7getFileEv T
_ZNK10UtestShell7getNameEv T
_ZNK10UtestShell7getNextEv T
_ZNK10UtestShell7willRunEv T
_ZNK10UtestShell8getGroupEv T
_ZNK10UtestShell9hasFailedEv T
_ZNK10UtestShell9shouldRunEPK10TestFilterS2_ T
_ZNK11TestFailure10getMessageEv T
_ZNK11TestFailure11getFileNameEv T
_ZNK11TestFailure11getTestNameEv T
_ZNK11TestFailure15getTestFileNameEv T
_ZNK11TestFailure15getTestNameOnlyEv T
_ZNK11TestFailure17getTestLineNumberEv T
_ZNK11TestFailure17isOutsideTestFileEv T
_ZNK11TestFailure18isInHelperFunctionEv T
_ZNK11TestFailure20getFailureLineNumberEv T
_ZNK12SimpleString10startsWithERKS_ T
_ZNK12SimpleString12asCharStringEv T
_ZNK12SimpleString12copyToBufferEPcm T
_ZNK12SimpleString12equalsNoCaseERKS_ T
_ZNK12SimpleString14containsNoCaseERKS_ T
_ZNK12SimpleString14getEmptyStringEv T
_ZNK12SimpleString17subStringFromTillEcc T
_ZNK12SimpleString2atEm T
_ZNK12SimpleString4findEc T
_ZNK12SimpleString4sizeEv T
_ZNK12SimpleString5countERKS_ T
_ZNK12SimpleString5splitERKS_R22SimpleStringCollection T
_ZNK12SimpleString7isEmptyEv T
_ZNK12SimpleString8containsERKS_ T
_ZNK12SimpleString8endsWithERKS_ T
_ZNK12SimpleString8findFromEmc T
_ZNK12SimpleString9getBufferEv T
_ZNK12SimpleString9lowerCaseEv T
_ZNK12SimpleString9subStringEm T
_ZNK12SimpleString9subStringEmm T
_ZNK12SimpleStringplERKS_ T
_ZNK16MemoryAccountant10stringSizeEm T
_ZNK16MemoryAccountant11reportTitleEv T
_ZNK16MemoryAccountant12reportFooterEv T
_ZNK16MemoryAccountant12reportHeaderEv T
_ZNK16MemoryAccountant14findNodeOfSizeEm T
_ZNK16MemoryAccountant16totalAllocationsEv T
_ZNK16MemoryAccountant18totalDeallocationsEv T
_ZNK16MemoryAccountant19reportNoAllocationsEv T
_ZNK16MemoryAccountant22totalAllocationsOfSizeEm T
_ZNK16MemoryAccountant24totalDeallocationsOfSizeEm T
_ZNK16MemoryAccountant30maximumAllocationAtATimeOfSizeEm T
_ZNK16MemoryAccountant31destroyAccountantAllocationNodeEP30MemoryAccountantAllocationNode T
_ZNK16MemoryAccountant33createNewAccountantAllocationNodeEmP30MemoryAccountantAllocationNode T
_ZNK16MemoryAccountant6reportEv T
_ZNK17IgnoredUtestShell12getMacroNameEv T
_ZNK17IgnoredUtestShell7willRunEv T
_ZNK18MemoryLeakDetector25getCurrentAllocationStageEv T
_ZNK19MemoryLeakAllocator10alloc_nameEv T
_ZNK19MemoryLeakAllocator4nameEv T
_ZNK19MemoryLeakAllocator9free_nameEv T
_ZNK19TestMemoryAllocator10alloc_nameEv T
_ZNK19TestMemoryAllocator4nameEv T
_ZNK19TestMemoryAllocator9free_nameEv T
_ZNK20CommandLineArguments11isReversingEv T
_ZNK20CommandLineArguments11isShufflingEv T
_ZNK20CommandLineArguments12isRunIgnoredEv T
_ZNK20CommandLineArguments13isJUnitOutputEv T
_ZNK20CommandLineArguments13isVeryVerboseEv T
_ZNK20CommandLineArguments14getNameFiltersEv T
_ZNK20CommandLineArguments14getPackageNameEv T
_ZNK20CommandLineArguments14getRepeatCountEv T
_ZNK20CommandLineArguments14getShuffleSeedEv T
_ZNK20CommandLineArguments15getGroupFiltersEv T
_ZNK20CommandLineArguments15isEclipseOutputEv T
_ZNK20CommandLineArguments16isCrashingOnFailEv T
_ZNK20CommandLineArguments16isTeamCityOutputEv T
_ZNK20CommandLineArguments23isListingTestGroupNamesEv T
_ZNK20CommandLineArguments25runTestsInSeperateProcessEv T
_ZNK20CommandLineArguments30isListingTestGroupAndCaseNamesEv T
_ZNK20CommandLineArguments4helpEv T
_ZNK20CommandLineArguments5usageEv T
_ZNK20CommandLineArguments7isColorEv T
_ZNK20CommandLineArguments8needHelpEv T
_ZNK20CommandLineArguments9isVerboseEv T
_ZNK20NormalTestTerminator15exitCurrentTestEv T
_ZNK22CrashingTestTerminator15exitCurrentTestEv T
_ZNK22SimpleStringCollection4sizeEv T
_ZNK22UtestShellPointerArray12getFirstTestEv T
_ZNK22UtestShellPointerArray3getEm T
_ZNK29AccountingTestMemoryAllocator10alloc_nameEv T
_ZNK29AccountingTestMemoryAllocator9free_nameEv T
_ZNK31TestTerminatorWithoutExceptions15exitCurrentTestEv T
_ZNSt9bad_allocC1Ev W
_ZNSt9bad_allocC2Ev W
_ZNSt9exceptionC1Ev W
_ZNSt9exceptionC2Ev W
_Znwm T
_ZnwmPKci T
_ZnwmPKcm T
_ZnwmRKSt9nothrow_t T
_ZSt5isinfd W
_ZSt5isnand W
_ZTI10TestOutput V
_ZTI10TestPlugin V
_ZTI10TestResult V
_ZTI10UtestShell V
_ZTI11FailFailure V
_ZTI11TestFailure V
_ZTI12CheckFailure V
_ZTI12ExecFunction V
_ZTI12TestRegistry V
_ZTI13EqualsFailure V
_ZTI13TestInstaller V
_ZTI14NullTestPlugin V
_ZTI14TestTerminator V
_ZTI15ContainsFailure V
_ZTI15JUnitTestOutput V
_ZTI16BitsEqualFailure V
_ZTI16ExecFunctionTest V
_ZTI16SetPointerPlugin V
_ZTI17CheckEqualFailure V
_ZTI17ComparisonFailure V
_ZTI17ConsoleTestOutput V
_ZTI17IgnoredUtestShell V
_ZTI17LongsEqualFailure V
_ZTI17MemoryLeakFailure V
_ZTI18BinaryEqualFailure V
_ZTI18MemoryLeakDetector V
_ZTI18StringEqualFailure V
_ZTI18TeamCityTestOutput V
_ZTI18TestTestingFixture V
_ZTI19CompositeTestOutput V
_ZTI19DoublesEqualFailure V
_ZTI19MemoryLeakAllocator V
_ZTI19TestMemoryAllocator V
_ZTI20CommandLineArguments V
_ZTI20NormalTestTerminator V
_ZTI20NullUnknownAllocator V
_ZTI21CommandLineTestRunner V
_ZTI21ExecFunctionTestShell V
_ZTI21LongLongsEqualFailure V
_ZTI22CrashingTestTerminator V
_ZTI22OutsideTestRunnerUTest V
_ZTI22StringBufferTestOutput V
_ZTI23CppUTestFailedException V
_ZTI23FailableMemoryAllocator V
_ZTI23MemoryLeakWarningPlugin V
_ZTI23SignedBytesEqualFailure V
_ZTI24StringEqualNoCaseFailure V
_ZTI25FeatureUnsupportedFailure V
_ZTI25MemoryLeakWarningReporter V
_ZTI25UnsignedLongsEqualFailure V
_ZTI26CrashOnAllocationAllocator V
_ZTI29AccountingTestMemoryAllocator V
_ZTI29ExecFunctionWithoutParameters V
_ZTI29UnsignedLongLongsEqualFailure V
_ZTI31TestTerminatorWithoutExceptions V
_ZTI5Utest V
_ZTS10TestOutput V
_ZTS10TestPlugin V
_ZTS10TestResult V
_ZTS10UtestShell V
_ZTS11FailFailure V
_ZTS11TestFailure V
_ZTS12CheckFailure V
_ZTS12ExecFunction V
_ZTS12TestRegistry V
_ZTS13EqualsFailure V
_ZTS13TestInstaller V
_ZTS14NullTestPlugin V
_ZTS14TestTerminator V
_ZTS15ContainsFailure V
_ZTS15JUnitTestOutput V
_ZTS16BitsEqualFailure V
_ZTS16ExecFunctionTest V
_ZTS16SetPointerPlugin V
_ZTS17CheckEqualFailure V
_ZTS17ComparisonFailure V
_ZTS17ConsoleTestOutput V
_ZTS17IgnoredUtestShell V
_ZTS17LongsEqualFailure V
_ZTS17MemoryLeakFailure V
_ZTS18BinaryEqualFailure V
_ZTS18MemoryLeakDetector V
_ZTS18StringEqualFailure V
_ZTS18TeamCityTestOutput V
_ZTS18TestTestingFixture V
_ZTS19CompositeTestOutput V
_ZTS19DoublesEqualFailure V
_ZTS19MemoryLeakAllocator V
_ZTS19TestMemoryAllocator V
_ZTS20CommandLineArguments V
_ZTS20NormalTestTerminator V
_ZTS20NullUnknownAllocator V
_ZTS21CommandLineTestRunner V
_ZTS21ExecFunctionTestShell V
_ZTS21LongLongsEqualFailure V
_ZTS22CrashingTestTerminator V
_ZTS22OutsideTestRunnerUTest V
_ZTS22StringBufferTestOutput V
_ZTS23CppUTestFailedException V
_ZTS23FailableMemoryAllocator V
_ZTS23MemoryLeakWarningPlugin V
_ZTS23SignedBytesEqualFailure V
_ZTS24StringEqualNoCaseFailure V
_ZTS25FeatureUnsupportedFailure V
_ZTS25MemoryLeakWarningReporter V
_ZTS25UnsignedLongsEqualFailure V
_ZTS26CrashOnAllocationAllocator V
_ZTS29AccountingTestMemoryAllocator V
_ZTS29ExecFunctionWithoutParameters V
_ZTS29UnsignedLongLongsEqualFailure V
_ZTS31TestTerminatorWithoutExceptions V
_ZTS5Utest V
_ZTV10TestOutput V
_ZTV10TestPlugin V
_ZTV10TestResult V
_ZTV10UtestShell V
_ZTV11FailFailure V
_ZTV11TestFailure V
_ZTV12CheckFailure V
_ZTV12ExecFunction V
_ZTV12TestRegistry V
_ZTV13EqualsFailure V
_ZTV13TestInstaller V
_ZTV14NullTestPlugin V
_ZTV14TestTerminator V
_ZTV15ContainsFailure V
_ZTV15JUnitTestOutput V
_ZTV16BitsEqualFailure V
_ZTV16ExecFunctionTest V
_ZTV16SetPointerPlugin V
_ZTV17CheckEqualFailure V
_ZTV17ComparisonFailure V
_ZTV17ConsoleTestOutput V
_ZTV17IgnoredUtestShell V
_ZTV17LongsEqualFailure V
_ZTV17MemoryLeakFailure V
_ZTV18BinaryEqualFailure V
_ZTV18MemoryLeakDetector V
_ZTV18StringEqualFailure V
_ZTV18TeamCityTestOutput V
_ZTV18TestTestingFixture V
_ZTV19CompositeTestOutput V
_ZTV19DoublesEqualFailure V
_ZTV19MemoryLeakAllocator V
_ZTV19TestMemoryAllocator V
_ZTV20CommandLineArguments V
_ZTV20NormalTestTerminator V
_ZTV20NullUnknownAllocator V
_ZTV21CommandLineTestRunner V
_ZTV21ExecFunctionTestShell V
_ZTV21LongLongsEqualFailure V
_ZTV22CrashingTestTerminator V
_ZTV22OutsideTestRunnerUTest V
_ZTV22StringBufferTestOutput V
_ZTV23FailableMemoryAllocator V
_ZTV23MemoryLeakWarningPlugin V
_ZTV23SignedBytesEqualFailure V
_ZTV24StringEqualNoCaseFailure V
_ZTV25FeatureUnsupportedFailure V
_ZTV25MemoryLeakWarningReporter V
_ZTV25UnsignedLongsEqualFailure V
_ZTV26CrashOnAllocationAllocator V
_ZTV29AccountingTestMemoryAllocator V
_ZTV29ExecFunctionWithoutParameters V
_ZTV29UnsignedLongLongsEqualFailure V
_ZTV31TestTerminatorWithoutExceptions V
_ZTV5Utest V
